; Function Attrs: nofree norecurse nosync nounwind memory(readwrite, argmem: read, inaccessiblemem: none) uwtable
define noundef nonnull ptr @Dau_DsdNormalizePerm(ptr noundef readonly %0, ptr noundef readonly captures(none) %1, i32 noundef %2) local_unnamed_addr #6 {
  %4 = icmp sgt i32 %2, 0
  br i1 %4, label %.lr.ph.preheader, label %._crit_edge38

.lr.ph.preheader:                                 ; preds = %3
  %wide.trip.count = zext nneg i32 %2 to i64
  br label %.lr.ph

.lr.ph37.preheader:                               ; preds = %.lr.ph
  %5 = zext nneg i32 %2 to i64
  %wide.trip.count52 = zext nneg i32 %2 to i64
  br label %.lr.ph37

.lr.ph:                                           ; preds = %.lr.ph.preheader, %.lr.ph
  %indvars.iv = phi i64 [ 0, %.lr.ph.preheader ], [ %indvars.iv.next, %.lr.ph ]
  %6 = getelementptr inbounds nuw [12 x i32], ptr @Dau_DsdNormalizePerm.pPerm, i64 0, i64 %indvars.iv
  %7 = trunc nuw nsw i64 %indvars.iv to i32
  store i32 %7, ptr %6, align 4, !tbaa !6
  %indvars.iv.next = add nuw nsw i64 %indvars.iv, 1
  %exitcond.not = icmp eq i64 %indvars.iv.next, %wide.trip.count
  br i1 %exitcond.not, label %.lr.ph37.preheader, label %.lr.ph, !llvm.loop !16

.lr.ph37:                                         ; preds = %.lr.ph37.preheader, %._crit_edge
  %indvars.iv49 = phi i64 [ 0, %.lr.ph37.preheader ], [ %indvars.iv.next50, %._crit_edge ]
  %indvars.iv42 = phi i64 [ 1, %.lr.ph37.preheader ], [ %indvars.iv.next43, %._crit_edge ]
  %indvars.iv.next50 = add nuw nsw i64 %indvars.iv49, 1
  %8 = icmp samesign ult i64 %indvars.iv.next50, %5
  %9 = trunc nuw nsw i64 %indvars.iv49 to i32
  br i1 %8, label %.lr.ph35, label %._crit_edge

.lr.ph35:                                         ; preds = %.lr.ph37, %Dau_DsdNormalizeCompare.exit.thread
  %indvars.iv44 = phi i64 [ %indvars.iv.next45, %Dau_DsdNormalizeCompare.exit.thread ], [ %indvars.iv42, %.lr.ph37 ]
  %.02234 = phi i32 [ %58, %Dau_DsdNormalizeCompare.exit.thread ], [ %9, %.lr.ph37 ]
  %10 = sext i32 %.02234 to i64
  %11 = getelementptr inbounds [12 x i32], ptr @Dau_DsdNormalizePerm.pPerm, i64 0, i64 %10
  %12 = load i32, ptr %11, align 4, !tbaa !6
  %13 = getelementptr inbounds nuw [12 x i32], ptr @Dau_DsdNormalizePerm.pPerm, i64 0, i64 %indvars.iv44
  %14 = load i32, ptr %13, align 4, !tbaa !6
  %15 = sext i32 %12 to i64
  %16 = getelementptr inbounds i32, ptr %1, i64 %15
  %17 = load i32, ptr %16, align 4, !tbaa !6
  %18 = sext i32 %17 to i64
  %19 = getelementptr inbounds i8, ptr %0, i64 %18
  %20 = sext i32 %14 to i64
  %21 = getelementptr inbounds i32, ptr %1, i64 %20
  %22 = load i32, ptr %21, align 4, !tbaa !6
  %23 = sext i32 %22 to i64
  %24 = getelementptr inbounds i8, ptr %0, i64 %23
  %25 = getelementptr i8, ptr %16, i64 4
  %26 = load i32, ptr %25, align 4, !tbaa !6
  %27 = sext i32 %26 to i64
  %28 = getelementptr inbounds i8, ptr %0, i64 %27
  %29 = getelementptr i8, ptr %21, i64 4
  %30 = load i32, ptr %29, align 4, !tbaa !6
  %31 = sext i32 %30 to i64
  %32 = getelementptr inbounds i8, ptr %0, i64 %31
  %33 = icmp slt i32 %17, %26
  %34 = icmp slt i32 %22, %30
  %35 = select i1 %33, i1 %34, i1 false
  br i1 %35, label %.lr.ph.i, label %._crit_edge.i

.lr.ph.i:                                         ; preds = %.lr.ph35, %49
  %.03241.i = phi ptr [ %50, %49 ], [ %19, %.lr.ph35 ]
  %.03340.i = phi ptr [ %51, %49 ], [ %24, %.lr.ph35 ]
  %36 = load i8, ptr %.03241.i, align 1, !tbaa !3
  %37 = add i8 %36, -97
  %or.cond.i = icmp ult i8 %37, 26
  br i1 %or.cond.i, label %40, label %38

38:                                               ; preds = %.lr.ph.i
  %39 = getelementptr inbounds i8, ptr %.03340.i, i64 -1
  br label %49

40:                                               ; preds = %.lr.ph.i
  %41 = load i8, ptr %.03340.i, align 1, !tbaa !3
  %42 = add i8 %41, -97
  %or.cond37.i = icmp ult i8 %42, 26
  br i1 %or.cond37.i, label %45, label %43

43:                                               ; preds = %40
  %44 = getelementptr inbounds i8, ptr %.03241.i, i64 -1
  br label %49

45:                                               ; preds = %40
  %46 = icmp samesign ult i8 %36, %41
  br i1 %46, label %Dau_DsdNormalizeCompare.exit.thread, label %47

47:                                               ; preds = %45
  %48 = icmp samesign ugt i8 %36, %41
  br i1 %48, label %Dau_DsdNormalizeCompare.exit.thread28, label %49

49:                                               ; preds = %47, %43, %38
  %.134.i = phi ptr [ %.03340.i, %47 ], [ %.03340.i, %43 ], [ %39, %38 ]
  %.1.i = phi ptr [ %.03241.i, %47 ], [ %44, %43 ], [ %.03241.i, %38 ]
  %50 = getelementptr inbounds nuw i8, ptr %.1.i, i64 1
  %51 = getelementptr inbounds nuw i8, ptr %.134.i, i64 1
  %52 = icmp ult ptr %50, %28
  %53 = icmp ult ptr %51, %32
  %54 = select i1 %52, i1 %53, i1 false
  br i1 %54, label %.lr.ph.i, label %._crit_edge.i, !llvm.loop !15

._crit_edge.i:                                    ; preds = %49, %.lr.ph35
  %.033.lcssa.i = phi ptr [ %24, %.lr.ph35 ], [ %51, %49 ]
  %.032.lcssa.i = phi ptr [ %19, %.lr.ph35 ], [ %50, %49 ]
  %55 = icmp eq ptr %.032.lcssa.i, %28
  br i1 %55, label %Dau_DsdNormalizeCompare.exit.thread, label %Dau_DsdNormalizeCompare.exit

Dau_DsdNormalizeCompare.exit:                     ; preds = %._crit_edge.i
  %56 = icmp eq ptr %.033.lcssa.i, %32
  %cond.fr = freeze i1 %56
  br i1 %cond.fr, label %Dau_DsdNormalizeCompare.exit.thread28, label %Dau_DsdNormalizeCompare.exit.thread

Dau_DsdNormalizeCompare.exit.thread28:            ; preds = %47, %Dau_DsdNormalizeCompare.exit
  %57 = trunc nuw nsw i64 %indvars.iv44 to i32
  br label %Dau_DsdNormalizeCompare.exit.thread

Dau_DsdNormalizeCompare.exit.thread:              ; preds = %45, %._crit_edge.i, %Dau_DsdNormalizeCompare.exit, %Dau_DsdNormalizeCompare.exit.thread28
  %58 = phi i32 [ %57, %Dau_DsdNormalizeCompare.exit.thread28 ], [ %.02234, %Dau_DsdNormalizeCompare.exit ], [ %.02234, %._crit_edge.i ], [ %.02234, %45 ]
  %indvars.iv.next45 = add nuw nsw i64 %indvars.iv44, 1
  %exitcond48.not = icmp eq i64 %indvars.iv.next45, %wide.trip.count52
  br i1 %exitcond48.not, label %._crit_edge, label %.lr.ph35, !llvm.loop !17

._crit_edge:                                      ; preds = %Dau_DsdNormalizeCompare.exit.thread, %.lr.ph37
  %.022.lcssa = phi i32 [ %9, %.lr.ph37 ], [ %58, %Dau_DsdNormalizeCompare.exit.thread ]
  %59 = getelementptr inbounds nuw [12 x i32], ptr @Dau_DsdNormalizePerm.pPerm, i64 0, i64 %indvars.iv49
  %60 = load i32, ptr %59, align 4, !tbaa !6
  %61 = sext i32 %.022.lcssa to i64
  %62 = getelementptr inbounds [12 x i32], ptr @Dau_DsdNormalizePerm.pPerm, i64 0, i64 %61
  %63 = load i32, ptr %62, align 4, !tbaa !6
  store i32 %63, ptr %59, align 4, !tbaa !6
  store i32 %60, ptr %62, align 4, !tbaa !6
  %indvars.iv.next43 = add nuw nsw i64 %indvars.iv42, 1
  %exitcond53.not = icmp eq i64 %indvars.iv.next50, %wide.trip.count52
  br i1 %exitcond53.not, label %._crit_edge38, label %.lr.ph37, !llvm.loop !18

._crit_edge38:                                    ; preds = %._crit_edge, %3
  ret ptr @Dau_DsdNormalizePerm.pPerm
}